target datalayout = "e-m:e-p270:32:32-p271:32:32-p272:64:64-i64:64-i128:128-f80:128-n8:16:32:64-S128"
target triple = "x86_64-pc-linux-gnu"

@MaxNodeLimit = external global i64, align 8
@.str.31 = private unnamed_addr constant [73 x i8] c"NodeLimitFudgeFactor must be between 2%% and 40%% of MaxNodeLimit (%ld)\0A\00", align 1

; Function Attrs: mustprogress nounwind uwtable
define hidden noundef i32 @_Z34NodeLimitFudgeFactorConstraintFunclb(i64 noundef %0, i1 noundef zeroext %1) #1 {
  %3 = alloca i32, align 4
  %4 = alloca i64, align 8
  %5 = alloca i8, align 1
  store i64 %0, ptr %4, align 8
  %6 = zext i1 %1 to i8
  store i8 %6, ptr %5, align 1
  %7 = load i64, ptr %4, align 8
  %8 = load i64, ptr @MaxNodeLimit, align 8
  %9 = mul nsw i64 %8, 2
  %10 = sdiv i64 %9, 100
  %11 = icmp slt i64 %7, %10
  br i1 %11, label %18, label %12

12:                                               ; preds = %2
  %13 = load i64, ptr %4, align 8
  %14 = load i64, ptr @MaxNodeLimit, align 8
  %15 = mul nsw i64 %14, 40
  %16 = sdiv i64 %15, 100
  %17 = icmp sgt i64 %13, %16
  br i1 %17, label %18, label %22

18:                                               ; preds = %12, %2
  %19 = load i8, ptr %5, align 1
  %20 = trunc i8 %19 to i1
  %21 = load i64, ptr @MaxNodeLimit, align 8
  call void (i1, ptr, ...) @_ZN7JVMFlag10printErrorEbPKcz(i1 noundef zeroext %20, ptr noundef @.str.31, i64 noundef %21)
  store i32 6, ptr %3, align 4
  br label %23

22:                                               ; preds = %12
  store i32 0, ptr %3, align 4
  br label %23

23:                                               ; preds = %22, %18
  %24 = load i32, ptr %3, align 4
  ret i32 %24
}