; Function Attrs: mustprogress nounwind uwtable
define hidden noundef range(i32 0, 7) i32 @_Z34NodeLimitFudgeFactorConstraintFunclb(i64 noundef %0, i1 noundef zeroext %1) local_unnamed_addr #0 {
  %3 = load i64, ptr @MaxNodeLimit, align 8
  %4 = sdiv i64 %3, 50
  %5 = icmp sgt i64 %4, %0
  br i1 %5, label %10, label %6

6:                                                ; preds = %2
  %7 = mul nsw i64 %3, 40
  %8 = sdiv i64 %7, 100
  %9 = icmp slt i64 %8, %0
  br i1 %9, label %10, label %11

10:                                               ; preds = %6, %2
  tail call void (i1, ptr, ...) @_ZN7JVMFlag10printErrorEbPKcz(i1 noundef zeroext %1, ptr noundef nonnull @.str.31, i64 noundef %3) #6
  br label %11

11:                                               ; preds = %6, %10
  %.0 = phi i32 [ 6, %10 ], [ 0, %6 ]
  ret i32 %.0
}